target datalayout = "e-m:e-p270:32:32-p271:32:32-p272:64:64-i64:64-i128:128-f80:128-n8:16:32:64-S128"
target triple = "x86_64-pc-linux-gnu"

%struct.Nwk_Man_t_ = type { ptr, ptr, ptr, ptr, ptr, [5 x i32], i32, ptr, ptr, ptr, ptr, ptr, i32, i32, i32, i32, i32 }
%struct.Nwk_Obj_t_ = type { ptr, ptr, ptr, %union.anon, i32, i32, i32, i32, float, float, float, i32, i32, i32, ptr }
%union.anon = type { ptr }
%struct.Vec_Ptr_t_ = type { i32, i32, ptr }

; Function Attrs: nounwind uwtable
define internal void @Vec_PtrGrow(ptr noundef %0, i32 noundef %1) #0 {
  %3 = alloca ptr, align 8
  %4 = alloca i32, align 4
  store ptr %0, ptr %3, align 8
  store i32 %1, ptr %4, align 4
  %5 = load ptr, ptr %3, align 8
  %6 = getelementptr inbounds %struct.Vec_Ptr_t_, ptr %5, i32 0, i32 0
  %7 = load i32, ptr %6, align 8
  %8 = load i32, ptr %4, align 4
  %9 = icmp sge i32 %7, %8
  br i1 %9, label %10, label %11

10:                                               ; preds = %2
  br label %36

11:                                               ; preds = %2
  %12 = load ptr, ptr %3, align 8
  %13 = getelementptr inbounds %struct.Vec_Ptr_t_, ptr %12, i32 0, i32 2
  %14 = load ptr, ptr %13, align 8
  %15 = icmp ne ptr %14, null
  br i1 %15, label %16, label %24

16:                                               ; preds = %11
  %17 = load ptr, ptr %3, align 8
  %18 = getelementptr inbounds %struct.Vec_Ptr_t_, ptr %17, i32 0, i32 2
  %19 = load ptr, ptr %18, align 8
  %20 = load i32, ptr %4, align 4
  %21 = sext i32 %20 to i64
  %22 = mul i64 8, %21
  %23 = call ptr @realloc(ptr noundef %19, i64 noundef %22) #8
  br label %29

24:                                               ; preds = %11
  %25 = load i32, ptr %4, align 4
  %26 = sext i32 %25 to i64
  %27 = mul i64 8, %26
  %28 = call noalias ptr @malloc(i64 noundef %27) #6
  br label %29

29:                                               ; preds = %24, %16
  %30 = phi ptr [ %23, %16 ], [ %28, %24 ]
  %31 = load ptr, ptr %3, align 8
  %32 = getelementptr inbounds %struct.Vec_Ptr_t_, ptr %31, i32 0, i32 2
  store ptr %30, ptr %32, align 8
  %33 = load i32, ptr %4, align 4
  %34 = load ptr, ptr %3, align 8
  %35 = getelementptr inbounds %struct.Vec_Ptr_t_, ptr %34, i32 0, i32 0
  store i32 %33, ptr %35, align 8
  br label %36

36:                                               ; preds = %29, %10
  ret void
}

; Function Attrs: nounwind uwtable
define internal ptr @Vec_PtrEntry(ptr noundef %0, i32 noundef %1) #0 {
  %3 = alloca ptr, align 8
  %4 = alloca i32, align 4
  store ptr %0, ptr %3, align 8
  store i32 %1, ptr %4, align 4
  %5 = load ptr, ptr %3, align 8
  %6 = getelementptr inbounds %struct.Vec_Ptr_t_, ptr %5, i32 0, i32 2
  %7 = load ptr, ptr %6, align 8
  %8 = load i32, ptr %4, align 4
  %9 = sext i32 %8 to i64
  %10 = getelementptr inbounds ptr, ptr %7, i64 %9
  %11 = load ptr, ptr %10, align 8
  ret ptr %11
}

; Function Attrs: nounwind uwtable
define internal void @Vec_PtrPush(ptr noundef %0, ptr noundef %1) #0 {
  %3 = alloca ptr, align 8
  %4 = alloca ptr, align 8
  store ptr %0, ptr %3, align 8
  store ptr %1, ptr %4, align 8
  %5 = load ptr, ptr %3, align 8
  %6 = getelementptr inbounds %struct.Vec_Ptr_t_, ptr %5, i32 0, i32 1
  %7 = load i32, ptr %6, align 4
  %8 = load ptr, ptr %3, align 8
  %9 = getelementptr inbounds %struct.Vec_Ptr_t_, ptr %8, i32 0, i32 0
  %10 = load i32, ptr %9, align 8
  %11 = icmp eq i32 %7, %10
  br i1 %11, label %12, label %26

12:                                               ; preds = %2
  %13 = load ptr, ptr %3, align 8
  %14 = getelementptr inbounds %struct.Vec_Ptr_t_, ptr %13, i32 0, i32 0
  %15 = load i32, ptr %14, align 8
  %16 = icmp slt i32 %15, 16
  br i1 %16, label %17, label %19

17:                                               ; preds = %12
  %18 = load ptr, ptr %3, align 8
  call void @Vec_PtrGrow(ptr noundef %18, i32 noundef 16)
  br label %25

19:                                               ; preds = %12
  %20 = load ptr, ptr %3, align 8
  %21 = load ptr, ptr %3, align 8
  %22 = getelementptr inbounds %struct.Vec_Ptr_t_, ptr %21, i32 0, i32 0
  %23 = load i32, ptr %22, align 8
  %24 = mul nsw i32 2, %23
  call void @Vec_PtrGrow(ptr noundef %20, i32 noundef %24)
  br label %25

25:                                               ; preds = %19, %17
  br label %26

26:                                               ; preds = %25, %2
  %27 = load ptr, ptr %4, align 8
  %28 = load ptr, ptr %3, align 8
  %29 = getelementptr inbounds %struct.Vec_Ptr_t_, ptr %28, i32 0, i32 2
  %30 = load ptr, ptr %29, align 8
  %31 = load ptr, ptr %3, align 8
  %32 = getelementptr inbounds %struct.Vec_Ptr_t_, ptr %31, i32 0, i32 1
  %33 = load i32, ptr %32, align 4
  %34 = add nsw i32 %33, 1
  store i32 %34, ptr %32, align 4
  %35 = sext i32 %33 to i64
  %36 = getelementptr inbounds ptr, ptr %30, i64 %35
  store ptr %27, ptr %36, align 8
  ret void
}

; Function Attrs: nounwind uwtable
define internal i32 @Nwk_ObjIsCi(ptr noundef %0) #0 {
  %2 = alloca ptr, align 8
  store ptr %0, ptr %2, align 8
  %3 = load ptr, ptr %2, align 8
  %4 = getelementptr inbounds %struct.Nwk_Obj_t_, ptr %3, i32 0, i32 4
  %5 = load i32, ptr %4, align 8
  %6 = and i32 %5, 7
  %7 = icmp eq i32 %6, 1
  %8 = zext i1 %7 to i32
  ret i32 %8
}

; Function Attrs: nounwind uwtable
define internal i32 @Nwk_ObjIsNode(ptr noundef %0) #0 {
  %2 = alloca ptr, align 8
  store ptr %0, ptr %2, align 8
  %3 = load ptr, ptr %2, align 8
  %4 = getelementptr inbounds %struct.Nwk_Obj_t_, ptr %3, i32 0, i32 4
  %5 = load i32, ptr %4, align 8
  %6 = and i32 %5, 7
  %7 = icmp eq i32 %6, 3
  %8 = zext i1 %7 to i32
  ret i32 %8
}

; Function Attrs: nounwind uwtable
define internal ptr @Nwk_ManCi(ptr noundef %0, i32 noundef %1) #0 {
  %3 = alloca ptr, align 8
  %4 = alloca i32, align 4
  store ptr %0, ptr %3, align 8
  store i32 %1, ptr %4, align 4
  %5 = load ptr, ptr %3, align 8
  %6 = getelementptr inbounds %struct.Nwk_Man_t_, ptr %5, i32 0, i32 2
  %7 = load ptr, ptr %6, align 8
  %8 = load i32, ptr %4, align 4
  %9 = call ptr @Vec_PtrEntry(ptr noundef %7, i32 noundef %8)
  ret ptr %9
}

; Function Attrs: nounwind uwtable
define internal i32 @Nwk_ObjIsCo(ptr noundef %0) #0 {
  %2 = alloca ptr, align 8
  store ptr %0, ptr %2, align 8
  %3 = load ptr, ptr %2, align 8
  %4 = getelementptr inbounds %struct.Nwk_Obj_t_, ptr %3, i32 0, i32 4
  %5 = load i32, ptr %4, align 8
  %6 = and i32 %5, 7
  %7 = icmp eq i32 %6, 2
  %8 = zext i1 %7 to i32
  ret i32 %8
}

; Function Attrs: nounwind uwtable
define internal void @Nwk_ObjSetTravIdCurrent(ptr noundef %0) #0 {
  %2 = alloca ptr, align 8
  store ptr %0, ptr %2, align 8
  %3 = load ptr, ptr %2, align 8
  %4 = getelementptr inbounds %struct.Nwk_Obj_t_, ptr %3, i32 0, i32 0
  %5 = load ptr, ptr %4, align 8
  %6 = getelementptr inbounds %struct.Nwk_Man_t_, ptr %5, i32 0, i32 12
  %7 = load i32, ptr %6, align 8
  %8 = load ptr, ptr %2, align 8
  %9 = getelementptr inbounds %struct.Nwk_Obj_t_, ptr %8, i32 0, i32 6
  store i32 %7, ptr %9, align 8
  ret void
}

; Function Attrs: nounwind uwtable
define internal i32 @Nwk_ObjIsTravIdCurrent(ptr noundef %0) #0 {
  %2 = alloca ptr, align 8
  store ptr %0, ptr %2, align 8
  %3 = load ptr, ptr %2, align 8
  %4 = getelementptr inbounds %struct.Nwk_Obj_t_, ptr %3, i32 0, i32 6
  %5 = load i32, ptr %4, align 8
  %6 = load ptr, ptr %2, align 8
  %7 = getelementptr inbounds %struct.Nwk_Obj_t_, ptr %6, i32 0, i32 0
  %8 = load ptr, ptr %7, align 8
  %9 = getelementptr inbounds %struct.Nwk_Man_t_, ptr %8, i32 0, i32 12
  %10 = load i32, ptr %9, align 8
  %11 = icmp eq i32 %5, %10
  %12 = zext i1 %11 to i32
  ret i32 %12
}

; Function Attrs: nounwind uwtable
define void @Nwk_ManDfsReverse_rec(ptr noundef %0, ptr noundef %1) #0 {
  %3 = alloca ptr, align 8
  %4 = alloca ptr, align 8
  %5 = alloca ptr, align 8
  %6 = alloca i32, align 4
  %7 = alloca i32, align 4
  %8 = alloca i32, align 4
  %9 = alloca i32, align 4
  store ptr %0, ptr %3, align 8
  store ptr %1, ptr %4, align 8
  %10 = load ptr, ptr %3, align 8
  %11 = call i32 @Nwk_ObjIsTravIdCurrent(ptr noundef %10)
  %12 = icmp ne i32 %11, 0
  br i1 %12, label %13, label %14

13:                                               ; preds = %2
  br label %116

14:                                               ; preds = %2
  %15 = load ptr, ptr %3, align 8
  call void @Nwk_ObjSetTravIdCurrent(ptr noundef %15)
  %16 = load ptr, ptr %3, align 8
  %17 = call i32 @Nwk_ObjIsCo(ptr noundef %16)
  %18 = icmp ne i32 %17, 0
  br i1 %18, label %19, label %74

19:                                               ; preds = %14
  %20 = load ptr, ptr %3, align 8
  %21 = getelementptr inbounds %struct.Nwk_Obj_t_, ptr %20, i32 0, i32 0
  %22 = load ptr, ptr %21, align 8
  %23 = getelementptr inbounds %struct.Nwk_Man_t_, ptr %22, i32 0, i32 8
  %24 = load ptr, ptr %23, align 8
  %25 = icmp ne ptr %24, null
  br i1 %25, label %26, label %73

26:                                               ; preds = %19
  %27 = load ptr, ptr %3, align 8
  %28 = getelementptr inbounds %struct.Nwk_Obj_t_, ptr %27, i32 0, i32 0
  %29 = load ptr, ptr %28, align 8
  %30 = getelementptr inbounds %struct.Nwk_Man_t_, ptr %29, i32 0, i32 8
  %31 = load ptr, ptr %30, align 8
  %32 = load ptr, ptr %3, align 8
  %33 = getelementptr inbounds %struct.Nwk_Obj_t_, ptr %32, i32 0, i32 4
  %34 = load i32, ptr %33, align 8
  %35 = lshr i32 %34, 7
  %36 = call i32 @Tim_ManBoxForCo(ptr noundef %31, i32 noundef %35)
  store i32 %36, ptr %7, align 4
  %37 = load i32, ptr %7, align 4
  %38 = icmp sge i32 %37, 0
  br i1 %38, label %39, label %72

39:                                               ; preds = %26
  %40 = load ptr, ptr %3, align 8
  %41 = getelementptr inbounds %struct.Nwk_Obj_t_, ptr %40, i32 0, i32 0
  %42 = load ptr, ptr %41, align 8
  %43 = getelementptr inbounds %struct.Nwk_Man_t_, ptr %42, i32 0, i32 8
  %44 = load ptr, ptr %43, align 8
  %45 = load i32, ptr %7, align 4
  %46 = call i32 @Tim_ManBoxOutputFirst(ptr noundef %44, i32 noundef %45)
  store i32 %46, ptr %8, align 4
  %47 = load ptr, ptr %3, align 8
  %48 = getelementptr inbounds %struct.Nwk_Obj_t_, ptr %47, i32 0, i32 0
  %49 = load ptr, ptr %48, align 8
  %50 = getelementptr inbounds %struct.Nwk_Man_t_, ptr %49, i32 0, i32 8
  %51 = load ptr, ptr %50, align 8
  %52 = load i32, ptr %7, align 4
  %53 = call i32 @Tim_ManBoxOutputNum(ptr noundef %51, i32 noundef %52)
  store i32 %53, ptr %9, align 4
  store i32 0, ptr %6, align 4
  br label %54

54:                                               ; preds = %68, %39
  %55 = load i32, ptr %6, align 4
  %56 = load i32, ptr %9, align 4
  %57 = icmp slt i32 %55, %56
  br i1 %57, label %58, label %71

58:                                               ; preds = %54
  %59 = load ptr, ptr %3, align 8
  %60 = getelementptr inbounds %struct.Nwk_Obj_t_, ptr %59, i32 0, i32 0
  %61 = load ptr, ptr %60, align 8
  %62 = load i32, ptr %8, align 4
  %63 = load i32, ptr %6, align 4
  %64 = add nsw i32 %62, %63
  %65 = call ptr @Nwk_ManCi(ptr noundef %61, i32 noundef %64)
  store ptr %65, ptr %5, align 8
  %66 = load ptr, ptr %5, align 8
  %67 = load ptr, ptr %4, align 8
  call void @Nwk_ManDfsReverse_rec(ptr noundef %66, ptr noundef %67)
  br label %68

68:                                               ; preds = %58
  %69 = load i32, ptr %6, align 4
  %70 = add nsw i32 %69, 1
  store i32 %70, ptr %6, align 4
  br label %54, !llvm.loop !24

71:                                               ; preds = %54
  br label %72

72:                                               ; preds = %71, %26
  br label %73

73:                                               ; preds = %72, %19
  br label %113

74:                                               ; preds = %14
  %75 = load ptr, ptr %3, align 8
  %76 = call i32 @Nwk_ObjIsNode(ptr noundef %75)
  %77 = icmp ne i32 %76, 0
  br i1 %77, label %82, label %78

78:                                               ; preds = %74
  %79 = load ptr, ptr %3, align 8
  %80 = call i32 @Nwk_ObjIsCi(ptr noundef %79)
  %81 = icmp ne i32 %80, 0
  br i1 %81, label %82, label %111

82:                                               ; preds = %78, %74
  store i32 0, ptr %6, align 4
  br label %83

83:                                               ; preds = %107, %82
  %84 = load i32, ptr %6, align 4
  %85 = load ptr, ptr %3, align 8
  %86 = getelementptr inbounds %struct.Nwk_Obj_t_, ptr %85, i32 0, i32 12
  %87 = load i32, ptr %86, align 8
  %88 = icmp slt i32 %84, %87
  br i1 %88, label %89, label %102

89:                                               ; preds = %83
  %90 = load ptr, ptr %3, align 8
  %91 = getelementptr inbounds %struct.Nwk_Obj_t_, ptr %90, i32 0, i32 14
  %92 = load ptr, ptr %91, align 8
  %93 = load ptr, ptr %3, align 8
  %94 = getelementptr inbounds %struct.Nwk_Obj_t_, ptr %93, i32 0, i32 11
  %95 = load i32, ptr %94, align 4
  %96 = load i32, ptr %6, align 4
  %97 = add nsw i32 %95, %96
  %98 = sext i32 %97 to i64
  %99 = getelementptr inbounds ptr, ptr %92, i64 %98
  %100 = load ptr, ptr %99, align 8
  store ptr %100, ptr %5, align 8
  %101 = icmp ne ptr %100, null
  br label %102

102:                                              ; preds = %89, %83
  %103 = phi i1 [ false, %83 ], [ %101, %89 ]
  br i1 %103, label %104, label %110

104:                                              ; preds = %102
  %105 = load ptr, ptr %5, align 8
  %106 = load ptr, ptr %4, align 8
  call void @Nwk_ManDfsReverse_rec(ptr noundef %105, ptr noundef %106)
  br label %107

107:                                              ; preds = %104
  %108 = load i32, ptr %6, align 4
  %109 = add nsw i32 %108, 1
  store i32 %109, ptr %6, align 4
  br label %83, !llvm.loop !25

110:                                              ; preds = %102
  br label %112

111:                                              ; preds = %78
  br label %112

112:                                              ; preds = %111, %110
  br label %113

113:                                              ; preds = %112, %73
  %114 = load ptr, ptr %4, align 8
  %115 = load ptr, ptr %3, align 8
  call void @Vec_PtrPush(ptr noundef %114, ptr noundef %115)
  br label %116

116:                                              ; preds = %113, %13
  ret void
}