; Function Attrs: nounwind uwtable
define void @Nwk_ManDfsReverse_rec(ptr noundef %0, ptr noundef %1) local_unnamed_addr #0 {
  %.val39 = load ptr, ptr %0, align 8
  %3 = getelementptr i8, ptr %0, i64 40
  %.val40 = load i32, ptr %3, align 8
  %4 = getelementptr i8, ptr %.val39, i64 104
  %.val39.val = load i32, ptr %4, align 8
  %.not = icmp eq i32 %.val40, %.val39.val
  br i1 %.not, label %80, label %5

5:                                                ; preds = %2
  store i32 %.val39.val, ptr %3, align 8
  %6 = getelementptr i8, ptr %0, i64 32
  %.val38 = load i32, ptr %6, align 8
  %7 = and i32 %.val38, 7
  switch i32 %7, label %.critedge [
    i32 2, label %8
    i32 3, label %32
    i32 1, label %32
  ]

8:                                                ; preds = %5
  %9 = getelementptr inbounds nuw i8, ptr %.val39, i64 72
  %10 = load ptr, ptr %9, align 8
  %.not37 = icmp eq ptr %10, null
  br i1 %.not37, label %.critedge, label %11

11:                                               ; preds = %8
  %12 = lshr i32 %.val38, 7
  %13 = tail call i32 @Tim_ManBoxForCo(ptr noundef nonnull %10, i32 noundef %12) #9
  %14 = icmp sgt i32 %13, -1
  br i1 %14, label %15, label %.critedge

15:                                               ; preds = %11
  %16 = load ptr, ptr %0, align 8
  %17 = getelementptr inbounds nuw i8, ptr %16, i64 72
  %18 = load ptr, ptr %17, align 8
  %19 = tail call i32 @Tim_ManBoxOutputFirst(ptr noundef %18, i32 noundef %13) #9
  %20 = load ptr, ptr %0, align 8
  %21 = getelementptr inbounds nuw i8, ptr %20, i64 72
  %22 = load ptr, ptr %21, align 8
  %23 = tail call i32 @Tim_ManBoxOutputNum(ptr noundef %22, i32 noundef %13) #9
  %24 = icmp sgt i32 %23, 0
  br i1 %24, label %.lr.ph50.preheader, label %.critedge

.lr.ph50.preheader:                               ; preds = %15
  %25 = sext i32 %19 to i64
  %wide.trip.count = zext nneg i32 %23 to i64
  br label %.lr.ph50

.lr.ph50:                                         ; preds = %.lr.ph50.preheader, %.lr.ph50
  %indvars.iv = phi i64 [ 0, %.lr.ph50.preheader ], [ %indvars.iv.next, %.lr.ph50 ]
  %26 = load ptr, ptr %0, align 8
  %27 = getelementptr i8, ptr %26, i64 16
  %.val42 = load ptr, ptr %27, align 8
  %28 = getelementptr i8, ptr %.val42, i64 8
  %.val42.val = load ptr, ptr %28, align 8
  %29 = getelementptr ptr, ptr %.val42.val, i64 %indvars.iv
  %30 = getelementptr ptr, ptr %29, i64 %25
  %31 = load ptr, ptr %30, align 8
  tail call void @Nwk_ManDfsReverse_rec(ptr noundef %31, ptr noundef %1)
  %indvars.iv.next = add nuw nsw i64 %indvars.iv, 1
  %exitcond.not = icmp eq i64 %indvars.iv.next, %wide.trip.count
  br i1 %exitcond.not, label %.critedge, label %.lr.ph50, !llvm.loop !24

32:                                               ; preds = %5, %5
  %33 = getelementptr inbounds nuw i8, ptr %0, i64 72
  %34 = getelementptr inbounds nuw i8, ptr %0, i64 64
  %35 = load i32, ptr %34, align 8
  %36 = icmp sgt i32 %35, 0
  br i1 %36, label %.lr.ph, label %.critedge

.lr.ph:                                           ; preds = %32
  %37 = getelementptr inbounds nuw i8, ptr %0, i64 60
  br label %38

38:                                               ; preds = %.lr.ph, %45
  %.147 = phi i32 [ 0, %.lr.ph ], [ %46, %45 ]
  %39 = load ptr, ptr %33, align 8
  %40 = load i32, ptr %37, align 4
  %41 = add nsw i32 %40, %.147
  %42 = sext i32 %41 to i64
  %43 = getelementptr inbounds ptr, ptr %39, i64 %42
  %44 = load ptr, ptr %43, align 8
  %.not36 = icmp eq ptr %44, null
  br i1 %.not36, label %.critedge, label %45

45:                                               ; preds = %38
  tail call void @Nwk_ManDfsReverse_rec(ptr noundef nonnull %44, ptr noundef %1)
  %46 = add nuw nsw i32 %.147, 1
  %47 = load i32, ptr %34, align 8
  %48 = icmp slt i32 %46, %47
  br i1 %48, label %38, label %.critedge, !llvm.loop !25

.critedge:                                        ; preds = %38, %45, %.lr.ph50, %32, %15, %5, %8, %11
  %49 = getelementptr inbounds nuw i8, ptr %1, i64 4
  %50 = load i32, ptr %49, align 4
  %51 = load i32, ptr %1, align 8
  %52 = icmp eq i32 %50, %51
  br i1 %52, label %53, label %.Vec_PtrGrow.exit11_crit_edge.i

.Vec_PtrGrow.exit11_crit_edge.i:                  ; preds = %.critedge
  %.phi.trans.insert.i = getelementptr inbounds nuw i8, ptr %1, i64 8
  %.pre.i = load ptr, ptr %.phi.trans.insert.i, align 8
  br label %Vec_PtrPush.exit

53:                                               ; preds = %.critedge
  %54 = icmp slt i32 %50, 16
  br i1 %54, label %55, label %63

55:                                               ; preds = %53
  %56 = getelementptr inbounds nuw i8, ptr %1, i64 8
  %57 = load ptr, ptr %56, align 8
  %.not9.i.i = icmp eq ptr %57, null
  br i1 %.not9.i.i, label %60, label %58

58:                                               ; preds = %55
  %59 = tail call dereferenceable_or_null(128) ptr @realloc(ptr noundef nonnull %57, i64 noundef 128) #11
  br label %Vec_PtrGrow.exit.i

60:                                               ; preds = %55
  %61 = tail call noalias dereferenceable_or_null(128) ptr @malloc(i64 noundef 128) #10
  br label %Vec_PtrGrow.exit.i

Vec_PtrGrow.exit.i:                               ; preds = %60, %58
  %62 = phi ptr [ %59, %58 ], [ %61, %60 ]
  store ptr %62, ptr %56, align 8
  store i32 16, ptr %1, align 8
  br label %Vec_PtrPush.exit

63:                                               ; preds = %53
  %64 = shl nuw nsw i32 %50, 1
  %65 = getelementptr inbounds nuw i8, ptr %1, i64 8
  %66 = load ptr, ptr %65, align 8
  %.not9.i10.i = icmp eq ptr %66, null
  %67 = zext nneg i32 %64 to i64
  %68 = shl nuw nsw i64 %67, 3
  br i1 %.not9.i10.i, label %71, label %69

69:                                               ; preds = %63
  %70 = tail call ptr @realloc(ptr noundef nonnull %66, i64 noundef %68) #11
  br label %73

71:                                               ; preds = %63
  %72 = tail call noalias ptr @malloc(i64 noundef %68) #10
  br label %73

73:                                               ; preds = %71, %69
  %74 = phi ptr [ %70, %69 ], [ %72, %71 ]
  store ptr %74, ptr %65, align 8
  store i32 %64, ptr %1, align 8
  br label %Vec_PtrPush.exit

Vec_PtrPush.exit:                                 ; preds = %.Vec_PtrGrow.exit11_crit_edge.i, %Vec_PtrGrow.exit.i, %73
  %75 = phi ptr [ %.pre.i, %.Vec_PtrGrow.exit11_crit_edge.i ], [ %74, %73 ], [ %62, %Vec_PtrGrow.exit.i ]
  %76 = load i32, ptr %49, align 4
  %77 = add nsw i32 %76, 1
  store i32 %77, ptr %49, align 4
  %78 = sext i32 %76 to i64
  %79 = getelementptr inbounds ptr, ptr %75, i64 %78
  store ptr %0, ptr %79, align 8
  br label %80

80:                                               ; preds = %2, %Vec_PtrPush.exit
  ret void
}